ARM GAS  C:\Users\cante\AppData\Local\Temp\ccsS74Py.s 			page 1


   1              		.syntax unified
   2              		.cpu cortex-m3
   3              		.fpu softvfp
   4              		.eabi_attribute 20, 1
   5              		.eabi_attribute 21, 1
   6              		.eabi_attribute 23, 3
   7              		.eabi_attribute 24, 1
   8              		.eabi_attribute 25, 1
   9              		.eabi_attribute 26, 1
  10              		.eabi_attribute 30, 1
  11              		.eabi_attribute 34, 1
  12              		.eabi_attribute 18, 4
  13              		.thumb
  14              		.syntax unified
  15              		.file	"InterruptRoutines.c"
  16              		.text
  17              	.Ltext0:
  18              		.cfi_sections	.debug_frame
  19              		.section	.text.Custom_ISR_ADC,"ax",%progbits
  20              		.align	2
  21              		.global	Custom_ISR_ADC
  22              		.thumb
  23              		.thumb_func
  24              		.type	Custom_ISR_ADC, %function
  25              	Custom_ISR_ADC:
  26              	.LFB64:
  27              		.file 1 "InterruptRoutines.c"
   1:InterruptRoutines.c **** /* ========================================
   2:InterruptRoutines.c ****  *
   3:InterruptRoutines.c ****  * Copyright YOUR COMPANY, THE YEAR
   4:InterruptRoutines.c ****  * All Rights Reserved
   5:InterruptRoutines.c ****  * UNPUBLISHED, LICENSED SOFTWARE.
   6:InterruptRoutines.c ****  *
   7:InterruptRoutines.c ****  * CONFIDENTIAL AND PROPRIETARY INFORMATION
   8:InterruptRoutines.c ****  * WHICH IS THE PROPERTY OF your company.
   9:InterruptRoutines.c ****  *
  10:InterruptRoutines.c ****  * ========================================
  11:InterruptRoutines.c **** */
  12:InterruptRoutines.c **** 
  13:InterruptRoutines.c **** #include "InterruptRoutines.h"
  14:InterruptRoutines.c **** #include "project.h"
  15:InterruptRoutines.c **** 
  16:InterruptRoutines.c **** int32 value_digit;
  17:InterruptRoutines.c **** int32 value_mv; 
  18:InterruptRoutines.c **** extern volatile uint8 PacketReadyFlag;
  19:InterruptRoutines.c **** extern volatile uint8 SendBytesFlag;
  20:InterruptRoutines.c **** uint8 ch_received;
  21:InterruptRoutines.c **** 
  22:InterruptRoutines.c **** 
  23:InterruptRoutines.c **** CY_ISR(Custom_ISR_ADC)
  24:InterruptRoutines.c **** {
  28              		.loc 1 24 0
  29              		.cfi_startproc
  30              		@ args = 0, pretend = 0, frame = 0
  31              		@ frame_needed = 0, uses_anonymous_args = 0
  32 0000 08B5     		push	{r3, lr}
  33              		.cfi_def_cfa_offset 8
ARM GAS  C:\Users\cante\AppData\Local\Temp\ccsS74Py.s 			page 2


  34              		.cfi_offset 3, -8
  35              		.cfi_offset 14, -4
  25:InterruptRoutines.c ****     Timer_ReadStatusRegister(); //se non la metto il codice esegue una sola interrupt e si ferma  
  36              		.loc 1 25 0
  37 0002 FFF7FEFF 		bl	Timer_ReadStatusRegister
  38              	.LVL0:
  26:InterruptRoutines.c ****     if (SendBytesFlag == 1) {
  39              		.loc 1 26 0
  40 0006 124B     		ldr	r3, .L6
  41 0008 1B78     		ldrb	r3, [r3]	@ zero_extendqisi2
  42 000a DBB2     		uxtb	r3, r3
  43 000c 012B     		cmp	r3, #1
  44 000e 1ED1     		bne	.L1
  27:InterruptRoutines.c ****         value_digit= ADC_DelSig_Read32(); //perchè usiamo qui 32 se abbiamo settato l'adc a 16 bit
  45              		.loc 1 27 0
  46 0010 FFF7FEFF 		bl	ADC_DelSig_Read32
  47              	.LVL1:
  48 0014 0F4B     		ldr	r3, .L6+4
  49 0016 1860     		str	r0, [r3]
  28:InterruptRoutines.c ****         
  29:InterruptRoutines.c ****         if (value_digit < 0)     value_digit = 0;
  50              		.loc 1 29 0
  51 0018 0028     		cmp	r0, #0
  52 001a 01DA     		bge	.L3
  53              		.loc 1 29 0 is_stmt 0 discriminator 1
  54 001c 0022     		movs	r2, #0
  55 001e 1A60     		str	r2, [r3]
  56              	.L3:
  30:InterruptRoutines.c ****         if (value_digit > 65535) value_digit = 65535; //setto valori minimo e massimo che noi leggi
  57              		.loc 1 30 0 is_stmt 1
  58 0020 0C4B     		ldr	r3, .L6+4
  59 0022 1B68     		ldr	r3, [r3]
  60 0024 B3F5803F 		cmp	r3, #65536
  61 0028 03DB     		blt	.L4
  62              		.loc 1 30 0 is_stmt 0 discriminator 1
  63 002a 4FF6FF72 		movw	r2, #65535
  64 002e 094B     		ldr	r3, .L6+4
  65 0030 1A60     		str	r2, [r3]
  66              	.L4:
  31:InterruptRoutines.c ****         
  32:InterruptRoutines.c ****         value_mv = ADC_DelSig_CountsTo_mVolts(value_digit); // trasformo i dati da digit a millivol
  67              		.loc 1 32 0 is_stmt 1
  68 0032 084B     		ldr	r3, .L6+4
  69 0034 1868     		ldr	r0, [r3]
  70 0036 FFF7FEFF 		bl	ADC_DelSig_CountsTo_mVolts
  71              	.LVL2:
  72 003a 0246     		mov	r2, r0
  73 003c 064B     		ldr	r3, .L6+8
  74 003e 1860     		str	r0, [r3]
  33:InterruptRoutines.c ****         
  34:InterruptRoutines.c ****         sprintf(DataBuffer, "Sample: %ld mV\r\n", value_mv); 
  75              		.loc 1 34 0
  76 0040 0649     		ldr	r1, .L6+12
  77 0042 0748     		ldr	r0, .L6+16
  78 0044 FFF7FEFF 		bl	sprintf
  79              	.LVL3:
  35:InterruptRoutines.c ****         
ARM GAS  C:\Users\cante\AppData\Local\Temp\ccsS74Py.s 			page 3


  36:InterruptRoutines.c ****         PacketReadyFlag = 1;
  80              		.loc 1 36 0
  81 0048 0122     		movs	r2, #1
  82 004a 064B     		ldr	r3, .L6+20
  83 004c 1A70     		strb	r2, [r3]
  84              	.L1:
  85 004e 08BD     		pop	{r3, pc}
  86              	.L7:
  87              		.align	2
  88              	.L6:
  89 0050 00000000 		.word	SendBytesFlag
  90 0054 00000000 		.word	value_digit
  91 0058 00000000 		.word	value_mv
  92 005c 00000000 		.word	.LC0
  93 0060 00000000 		.word	DataBuffer
  94 0064 00000000 		.word	PacketReadyFlag
  95              		.cfi_endproc
  96              	.LFE64:
  97              		.size	Custom_ISR_ADC, .-Custom_ISR_ADC
  98              		.section	.text.Custom_ISR_RX,"ax",%progbits
  99              		.align	2
 100              		.global	Custom_ISR_RX
 101              		.thumb
 102              		.thumb_func
 103              		.type	Custom_ISR_RX, %function
 104              	Custom_ISR_RX:
 105              	.LFB65:
  37:InterruptRoutines.c ****     }
  38:InterruptRoutines.c **** 
  39:InterruptRoutines.c **** 
  40:InterruptRoutines.c **** }
  41:InterruptRoutines.c **** 
  42:InterruptRoutines.c **** CY_ISR(Custom_ISR_RX)
  43:InterruptRoutines.c **** {
 106              		.loc 1 43 0
 107              		.cfi_startproc
 108              		@ args = 0, pretend = 0, frame = 0
 109              		@ frame_needed = 0, uses_anonymous_args = 0
 110 0000 08B5     		push	{r3, lr}
 111              		.cfi_def_cfa_offset 8
 112              		.cfi_offset 3, -8
 113              		.cfi_offset 14, -4
  44:InterruptRoutines.c ****     ch_received = UART_GetChar(); // per ricevere il carattere dall'uart
 114              		.loc 1 44 0
 115 0002 FFF7FEFF 		bl	UART_GetChar
 116              	.LVL4:
 117 0006 144B     		ldr	r3, .L14
 118 0008 1870     		strb	r0, [r3]
  45:InterruptRoutines.c ****     
  46:InterruptRoutines.c ****     switch(ch_received)
 119              		.loc 1 46 0
 120 000a 4138     		subs	r0, r0, #65
 121 000c 2128     		cmp	r0, #33
 122 000e 21D8     		bhi	.L8
 123 0010 DFE800F0 		tbb	[pc, r0]
 124              	.L11:
 125 0014 11       		.byte	(.L10-.L11)/2
ARM GAS  C:\Users\cante\AppData\Local\Temp\ccsS74Py.s 			page 4


 126 0015 19       		.byte	(.L12-.L11)/2
 127 0016 20       		.byte	(.L8-.L11)/2
 128 0017 20       		.byte	(.L8-.L11)/2
 129 0018 20       		.byte	(.L8-.L11)/2
 130 0019 20       		.byte	(.L8-.L11)/2
 131 001a 20       		.byte	(.L8-.L11)/2
 132 001b 20       		.byte	(.L8-.L11)/2
 133 001c 20       		.byte	(.L8-.L11)/2
 134 001d 20       		.byte	(.L8-.L11)/2
 135 001e 20       		.byte	(.L8-.L11)/2
 136 001f 20       		.byte	(.L8-.L11)/2
 137 0020 20       		.byte	(.L8-.L11)/2
 138 0021 20       		.byte	(.L8-.L11)/2
 139 0022 20       		.byte	(.L8-.L11)/2
 140 0023 20       		.byte	(.L8-.L11)/2
 141 0024 20       		.byte	(.L8-.L11)/2
 142 0025 20       		.byte	(.L8-.L11)/2
 143 0026 20       		.byte	(.L8-.L11)/2
 144 0027 20       		.byte	(.L8-.L11)/2
 145 0028 20       		.byte	(.L8-.L11)/2
 146 0029 20       		.byte	(.L8-.L11)/2
 147 002a 20       		.byte	(.L8-.L11)/2
 148 002b 20       		.byte	(.L8-.L11)/2
 149 002c 20       		.byte	(.L8-.L11)/2
 150 002d 20       		.byte	(.L8-.L11)/2
 151 002e 20       		.byte	(.L8-.L11)/2
 152 002f 20       		.byte	(.L8-.L11)/2
 153 0030 20       		.byte	(.L8-.L11)/2
 154 0031 20       		.byte	(.L8-.L11)/2
 155 0032 20       		.byte	(.L8-.L11)/2
 156 0033 20       		.byte	(.L8-.L11)/2
 157 0034 11       		.byte	(.L10-.L11)/2
 158 0035 19       		.byte	(.L12-.L11)/2
 159              		.p2align 1
 160              	.L10:
  47:InterruptRoutines.c ****     {
  48:InterruptRoutines.c ****         case 'A':
  49:InterruptRoutines.c ****         case 'a':
  50:InterruptRoutines.c ****             SendBytesFlag = 1;
 161              		.loc 1 50 0
 162 0036 0120     		movs	r0, #1
 163 0038 084B     		ldr	r3, .L14+4
 164 003a 1870     		strb	r0, [r3]
  51:InterruptRoutines.c ****             Pin_LED_Write(1);
 165              		.loc 1 51 0
 166 003c FFF7FEFF 		bl	Pin_LED_Write
 167              	.LVL5:
  52:InterruptRoutines.c ****             Timer_Start();
 168              		.loc 1 52 0
 169 0040 FFF7FEFF 		bl	Timer_Start
 170              	.LVL6:
  53:InterruptRoutines.c ****             break;
 171              		.loc 1 53 0
 172 0044 08BD     		pop	{r3, pc}
 173              	.L12:
  54:InterruptRoutines.c ****         
  55:InterruptRoutines.c ****         case 'B':
ARM GAS  C:\Users\cante\AppData\Local\Temp\ccsS74Py.s 			page 5


  56:InterruptRoutines.c ****         case 'b':
  57:InterruptRoutines.c ****             SendBytesFlag = 0;
 174              		.loc 1 57 0
 175 0046 0020     		movs	r0, #0
 176 0048 044B     		ldr	r3, .L14+4
 177 004a 1870     		strb	r0, [r3]
  58:InterruptRoutines.c ****             Pin_LED_Write(0);
 178              		.loc 1 58 0
 179 004c FFF7FEFF 		bl	Pin_LED_Write
 180              	.LVL7:
  59:InterruptRoutines.c ****             Timer_Stop();
 181              		.loc 1 59 0
 182 0050 FFF7FEFF 		bl	Timer_Stop
 183              	.LVL8:
 184              	.L8:
 185 0054 08BD     		pop	{r3, pc}
 186              	.L15:
 187 0056 00BF     		.align	2
 188              	.L14:
 189 0058 00000000 		.word	ch_received
 190 005c 00000000 		.word	SendBytesFlag
 191              		.cfi_endproc
 192              	.LFE65:
 193              		.size	Custom_ISR_RX, .-Custom_ISR_RX
 194              		.comm	ch_received,1,1
 195              		.comm	value_mv,4,4
 196              		.comm	value_digit,4,4
 197              		.comm	DataBuffer,64,4
 198              		.section	.rodata.str1.4,"aMS",%progbits,1
 199              		.align	2
 200              	.LC0:
 201 0000 53616D70 		.ascii	"Sample: %ld mV\015\012\000"
 201      6C653A20 
 201      256C6420 
 201      6D560D0A 
 201      00
 202              		.text
 203              	.Letext0:
 204              		.file 2 "c:\\program files (x86)\\cypress\\psoc creator\\4.4\\psoc creator\\import\\gnu\\arm\\5.4.
 205              		.file 3 "c:\\program files (x86)\\cypress\\psoc creator\\4.4\\psoc creator\\import\\gnu\\arm\\5.4.
 206              		.file 4 "Generated_Source\\PSoC5/cytypes.h"
 207              		.file 5 "InterruptRoutines.h"
 208              		.file 6 "Generated_Source\\PSoC5/core_cm3.h"
 209              		.file 7 "Generated_Source\\PSoC5/Timer.h"
 210              		.file 8 "Generated_Source\\PSoC5/ADC_DelSig.h"
 211              		.file 9 "c:\\program files (x86)\\cypress\\psoc creator\\4.4\\psoc creator\\import\\gnu\\arm\\5.4.
 212              		.file 10 "Generated_Source\\PSoC5/UART.h"
 213              		.file 11 "Generated_Source\\PSoC5/Pin_LED.h"