ARM GAS  C:\Users\cante\AppData\Local\Temp\ccj51Uck.s 			page 1


   1              		.syntax unified
   2              		.cpu cortex-m3
   3              		.fpu softvfp
   4              		.eabi_attribute 20, 1
   5              		.eabi_attribute 21, 1
   6              		.eabi_attribute 23, 3
   7              		.eabi_attribute 24, 1
   8              		.eabi_attribute 25, 1
   9              		.eabi_attribute 26, 1
  10              		.eabi_attribute 30, 1
  11              		.eabi_attribute 34, 1
  12              		.eabi_attribute 18, 4
  13              		.thumb
  14              		.syntax unified
  15              		.file	"DMA_Routines.c"
  16              		.text
  17              	.Ltext0:
  18              		.cfi_sections	.debug_frame
  19              		.section	.text.DMA_ADC_2_MEM_Config,"ax",%progbits
  20              		.align	2
  21              		.global	DMA_ADC_2_MEM_Config
  22              		.thumb
  23              		.thumb_func
  24              		.type	DMA_ADC_2_MEM_Config, %function
  25              	DMA_ADC_2_MEM_Config:
  26              	.LFB64:
  27              		.file 1 "DMA_Routines.c"
   1:DMA_Routines.c **** /* ========================================
   2:DMA_Routines.c ****  *
   3:DMA_Routines.c ****  * Copyright YOUR COMPANY, THE YEAR
   4:DMA_Routines.c ****  * All Rights Reserved
   5:DMA_Routines.c ****  * UNPUBLISHED, LICENSED SOFTWARE.
   6:DMA_Routines.c ****  *
   7:DMA_Routines.c ****  * CONFIDENTIAL AND PROPRIETARY INFORMATION
   8:DMA_Routines.c ****  * WHICH IS THE PROPERTY OF your company.
   9:DMA_Routines.c ****  *
  10:DMA_Routines.c ****  * ========================================
  11:DMA_Routines.c **** */
  12:DMA_Routines.c **** 
  13:DMA_Routines.c **** #include "DMA_Routines.h"
  14:DMA_Routines.c **** #include "project.h"
  15:DMA_Routines.c **** 
  16:DMA_Routines.c **** void DMA_ADC_2_MEM_Config(void) {
  28              		.loc 1 16 0
  29              		.cfi_startproc
  30              		@ args = 0, pretend = 0, frame = 0
  31              		@ frame_needed = 0, uses_anonymous_args = 0
  32 0000 38B5     		push	{r3, r4, r5, lr}
  33              		.cfi_def_cfa_offset 16
  34              		.cfi_offset 3, -16
  35              		.cfi_offset 4, -12
  36              		.cfi_offset 5, -8
  37              		.cfi_offset 14, -4
  17:DMA_Routines.c ****     
  18:DMA_Routines.c **** 
  19:DMA_Routines.c ****     /* Variable declarations for DMA */
  20:DMA_Routines.c ****     /* Move these variable declarations to the top of the function */
ARM GAS  C:\Users\cante\AppData\Local\Temp\ccj51Uck.s 			page 2


  21:DMA_Routines.c ****     
  22:DMA_Routines.c ****     //handle the dma channel
  23:DMA_Routines.c ****     uint8 DMA_Chan;
  24:DMA_Routines.c ****     
  25:DMA_Routines.c ****     //handle to the dma to transaction descriptor
  26:DMA_Routines.c ****     uint8 DMA_TD[1];
  27:DMA_Routines.c **** 
  28:DMA_Routines.c ****     /* DMA Configuration for DMA */
  29:DMA_Routines.c ****     
  30:DMA_Routines.c ****     //initialize the dma channel
  31:DMA_Routines.c ****     DMA_Chan = DMA_DmaInitialize(DMA_BYTES_PER_BURST, DMA_REQUEST_PER_BURST, 
  38              		.loc 1 31 0
  39 0002 41F6FF73 		movw	r3, #8191
  40 0006 4FF48042 		mov	r2, #16384
  41 000a 0121     		movs	r1, #1
  42 000c 0220     		movs	r0, #2
  43 000e FFF7FEFF 		bl	DMA_DmaInitialize
  44              	.LVL0:
  45 0012 0546     		mov	r5, r0
  46              	.LVL1:
  32:DMA_Routines.c ****         HI16(DMA_SRC_BASE), HI16(DMA_DST_BASE));
  33:DMA_Routines.c ****     
  34:DMA_Routines.c ****     //allocation of TD
  35:DMA_Routines.c ****     DMA_TD[0] = CyDmaTdAllocate();
  47              		.loc 1 35 0
  48 0014 FFF7FEFF 		bl	CyDmaTdAllocate
  49              	.LVL2:
  50 0018 0446     		mov	r4, r0
  36:DMA_Routines.c ****     
  37:DMA_Routines.c ****     //Configuration of transaction descriptor (TD)
  38:DMA_Routines.c ****     CyDmaTdSetConfiguration(DMA_TD[0], 2, DMA_TD[0], CY_DMA_TD_INC_DST_ADR);
  51              		.loc 1 38 0
  52 001a 0223     		movs	r3, #2
  53 001c 0246     		mov	r2, r0
  54 001e 1946     		mov	r1, r3
  55 0020 FFF7FEFF 		bl	CyDmaTdSetConfiguration
  56              	.LVL3:
  39:DMA_Routines.c ****     
  40:DMA_Routines.c ****     //specify the address (lower part)
  41:DMA_Routines.c ****     CyDmaTdSetAddress(DMA_TD[0], LO16((uint32)ADC_DelSig_DEC_SAMP_PTR), LO16((uint32)AdcBuffer));
  57              		.loc 1 41 0
  58 0024 074A     		ldr	r2, .L3
  59 0026 92B2     		uxth	r2, r2
  60 0028 44F61061 		movw	r1, #19984
  61 002c 2046     		mov	r0, r4
  62 002e FFF7FEFF 		bl	CyDmaTdSetAddress
  63              	.LVL4:
  42:DMA_Routines.c ****     
  43:DMA_Routines.c ****     //association between dma channel with TD
  44:DMA_Routines.c ****     CyDmaChSetInitialTd(DMA_Chan, DMA_TD[0]);
  64              		.loc 1 44 0
  65 0032 2146     		mov	r1, r4
  66 0034 2846     		mov	r0, r5
  67 0036 FFF7FEFF 		bl	CyDmaChSetInitialTd
  68              	.LVL5:
  45:DMA_Routines.c ****     
  46:DMA_Routines.c ****     // start of dma
ARM GAS  C:\Users\cante\AppData\Local\Temp\ccj51Uck.s 			page 3


  47:DMA_Routines.c ****     CyDmaChEnable(DMA_Chan, 1);
  69              		.loc 1 47 0
  70 003a 0121     		movs	r1, #1
  71 003c 2846     		mov	r0, r5
  72 003e FFF7FEFF 		bl	CyDmaChEnable
  73              	.LVL6:
  74 0042 38BD     		pop	{r3, r4, r5, pc}
  75              	.LVL7:
  76              	.L4:
  77              		.align	2
  78              	.L3:
  79 0044 00000000 		.word	AdcBuffer
  80              		.cfi_endproc
  81              	.LFE64:
  82              		.size	DMA_ADC_2_MEM_Config, .-DMA_ADC_2_MEM_Config
  83              		.section	.text.DMA_FILTER_2_MEM_Config,"ax",%progbits
  84              		.align	2
  85              		.global	DMA_FILTER_2_MEM_Config
  86              		.thumb
  87              		.thumb_func
  88              		.type	DMA_FILTER_2_MEM_Config, %function
  89              	DMA_FILTER_2_MEM_Config:
  90              	.LFB65:
  48:DMA_Routines.c ****     
  49:DMA_Routines.c **** }
  50:DMA_Routines.c **** 
  51:DMA_Routines.c **** 
  52:DMA_Routines.c **** void DMA_FILTER_2_MEM_Config(void) {
  91              		.loc 1 52 0
  92              		.cfi_startproc
  93              		@ args = 0, pretend = 0, frame = 0
  94              		@ frame_needed = 0, uses_anonymous_args = 0
  95 0000 38B5     		push	{r3, r4, r5, lr}
  96              		.cfi_def_cfa_offset 16
  97              		.cfi_offset 3, -16
  98              		.cfi_offset 4, -12
  99              		.cfi_offset 5, -8
 100              		.cfi_offset 14, -4
  53:DMA_Routines.c **** 
  54:DMA_Routines.c **** 
  55:DMA_Routines.c ****     
  56:DMA_Routines.c ****     /* Variable declarations for DMA_FM */
  57:DMA_Routines.c ****     /* Move these variable declarations to the top of the function */
  58:DMA_Routines.c ****     uint8 DMA_FM_Chan;
  59:DMA_Routines.c ****     uint8 DMA_FM_TD[1];
  60:DMA_Routines.c **** 
  61:DMA_Routines.c ****     /* DMA Configuration for DMA_FM */
  62:DMA_Routines.c ****     DMA_FM_Chan = DMA_FM_DmaInitialize(DMA_FM_BYTES_PER_BURST, DMA_FM_REQUEST_PER_BURST, 
 101              		.loc 1 62 0
 102 0002 41F6FF73 		movw	r3, #8191
 103 0006 4FF48042 		mov	r2, #16384
 104 000a 0121     		movs	r1, #1
 105 000c 0220     		movs	r0, #2
 106 000e FFF7FEFF 		bl	DMA_FM_DmaInitialize
 107              	.LVL8:
 108 0012 0546     		mov	r5, r0
 109              	.LVL9:
ARM GAS  C:\Users\cante\AppData\Local\Temp\ccj51Uck.s 			page 4


  63:DMA_Routines.c ****         HI16(DMA_FM_SRC_BASE), HI16(DMA_FM_DST_BASE));
  64:DMA_Routines.c ****     DMA_FM_TD[0] = CyDmaTdAllocate();
 110              		.loc 1 64 0
 111 0014 FFF7FEFF 		bl	CyDmaTdAllocate
 112              	.LVL10:
 113 0018 0446     		mov	r4, r0
  65:DMA_Routines.c ****     CyDmaTdSetConfiguration(DMA_FM_TD[0], 2, DMA_FM_TD[0], CY_DMA_TD_INC_DST_ADR);
 114              		.loc 1 65 0
 115 001a 0223     		movs	r3, #2
 116 001c 0246     		mov	r2, r0
 117 001e 1946     		mov	r1, r3
 118 0020 FFF7FEFF 		bl	CyDmaTdSetConfiguration
 119              	.LVL11:
  66:DMA_Routines.c ****     CyDmaTdSetAddress(DMA_FM_TD[0], LO16((uint32)Filter_1_HOLDA_PTR), LO16((uint32)FilterBuffer));
 120              		.loc 1 66 0
 121 0024 074A     		ldr	r2, .L7
 122 0026 92B2     		uxth	r2, r2
 123 0028 4CF2A871 		movw	r1, #51112
 124 002c 2046     		mov	r0, r4
 125 002e FFF7FEFF 		bl	CyDmaTdSetAddress
 126              	.LVL12:
  67:DMA_Routines.c ****     CyDmaChSetInitialTd(DMA_FM_Chan, DMA_FM_TD[0]);
 127              		.loc 1 67 0
 128 0032 2146     		mov	r1, r4
 129 0034 2846     		mov	r0, r5
 130 0036 FFF7FEFF 		bl	CyDmaChSetInitialTd
 131              	.LVL13:
  68:DMA_Routines.c ****     CyDmaChEnable(DMA_FM_Chan, 1);
 132              		.loc 1 68 0
 133 003a 0121     		movs	r1, #1
 134 003c 2846     		mov	r0, r5
 135 003e FFF7FEFF 		bl	CyDmaChEnable
 136              	.LVL14:
 137 0042 38BD     		pop	{r3, r4, r5, pc}
 138              	.LVL15:
 139              	.L8:
 140              		.align	2
 141              	.L7:
 142 0044 00000000 		.word	FilterBuffer
 143              		.cfi_endproc
 144              	.LFE65:
 145              		.size	DMA_FILTER_2_MEM_Config, .-DMA_FILTER_2_MEM_Config
 146              		.section	.text.DMA_MEM_2_FILTER_Config,"ax",%progbits
 147              		.align	2
 148              		.global	DMA_MEM_2_FILTER_Config
 149              		.thumb
 150              		.thumb_func
 151              		.type	DMA_MEM_2_FILTER_Config, %function
 152              	DMA_MEM_2_FILTER_Config:
 153              	.LFB66:
  69:DMA_Routines.c ****     
  70:DMA_Routines.c ****     
  71:DMA_Routines.c **** }
  72:DMA_Routines.c **** 
  73:DMA_Routines.c **** 
  74:DMA_Routines.c **** void DMA_MEM_2_FILTER_Config(void){
 154              		.loc 1 74 0
ARM GAS  C:\Users\cante\AppData\Local\Temp\ccj51Uck.s 			page 5


 155              		.cfi_startproc
 156              		@ args = 0, pretend = 0, frame = 0
 157              		@ frame_needed = 0, uses_anonymous_args = 0
 158 0000 38B5     		push	{r3, r4, r5, lr}
 159              		.cfi_def_cfa_offset 16
 160              		.cfi_offset 3, -16
 161              		.cfi_offset 4, -12
 162              		.cfi_offset 5, -8
 163              		.cfi_offset 14, -4
  75:DMA_Routines.c **** 
  76:DMA_Routines.c ****     
  77:DMA_Routines.c ****     /* Variable declarations for DMA_MF */
  78:DMA_Routines.c ****     /* Move these variable declarations to the top of the function */
  79:DMA_Routines.c ****     uint8 DMA_MF_Chan;
  80:DMA_Routines.c ****     uint8 DMA_MF_TD[1];
  81:DMA_Routines.c **** 
  82:DMA_Routines.c ****     /* DMA Configuration for DMA_MF */
  83:DMA_Routines.c ****     DMA_MF_Chan = DMA_MF_DmaInitialize(DMA_MF_BYTES_PER_BURST, DMA_MF_REQUEST_PER_BURST, 
 164              		.loc 1 83 0
 165 0002 4FF48043 		mov	r3, #16384
 166 0006 41F6FF72 		movw	r2, #8191
 167 000a 0121     		movs	r1, #1
 168 000c 0220     		movs	r0, #2
 169 000e FFF7FEFF 		bl	DMA_MF_DmaInitialize
 170              	.LVL16:
 171 0012 0546     		mov	r5, r0
 172              	.LVL17:
  84:DMA_Routines.c ****         HI16(DMA_MF_SRC_BASE), HI16(DMA_MF_DST_BASE));
  85:DMA_Routines.c ****     DMA_MF_TD[0] = CyDmaTdAllocate();
 173              		.loc 1 85 0
 174 0014 FFF7FEFF 		bl	CyDmaTdAllocate
 175              	.LVL18:
 176 0018 0446     		mov	r4, r0
  86:DMA_Routines.c ****     CyDmaTdSetConfiguration(DMA_MF_TD[0], 2, DMA_MF_TD[0], CY_DMA_TD_INC_SRC_ADR);
 177              		.loc 1 86 0
 178 001a 0123     		movs	r3, #1
 179 001c 0246     		mov	r2, r0
 180 001e 0221     		movs	r1, #2
 181 0020 FFF7FEFF 		bl	CyDmaTdSetConfiguration
 182              	.LVL19:
  87:DMA_Routines.c ****     CyDmaTdSetAddress(DMA_MF_TD[0], LO16((uint32)AdcBuffer), LO16((uint32)Filter_1_STAGEA_PTR));
 183              		.loc 1 87 0
 184 0024 4CF2A072 		movw	r2, #51104
 185 0028 0649     		ldr	r1, .L11
 186 002a 89B2     		uxth	r1, r1
 187 002c 2046     		mov	r0, r4
 188 002e FFF7FEFF 		bl	CyDmaTdSetAddress
 189              	.LVL20:
  88:DMA_Routines.c ****     CyDmaChSetInitialTd(DMA_MF_Chan, DMA_MF_TD[0]);
 190              		.loc 1 88 0
 191 0032 2146     		mov	r1, r4
 192 0034 2846     		mov	r0, r5
 193 0036 FFF7FEFF 		bl	CyDmaChSetInitialTd
 194              	.LVL21:
  89:DMA_Routines.c ****     CyDmaChEnable(DMA_MF_Chan, 1);
 195              		.loc 1 89 0
 196 003a 0121     		movs	r1, #1
ARM GAS  C:\Users\cante\AppData\Local\Temp\ccj51Uck.s 			page 6


 197 003c 2846     		mov	r0, r5
 198 003e FFF7FEFF 		bl	CyDmaChEnable
 199              	.LVL22:
 200 0042 38BD     		pop	{r3, r4, r5, pc}
 201              	.LVL23:
 202              	.L12:
 203              		.align	2
 204              	.L11:
 205 0044 00000000 		.word	AdcBuffer
 206              		.cfi_endproc
 207              	.LFE66:
 208              		.size	DMA_MEM_2_FILTER_Config, .-DMA_MEM_2_FILTER_Config
 209              		.comm	FilterBuffer,2,4
 210              		.comm	AdcBuffer,2,4
 211              		.text
 212              	.Letext0:
 213              		.file 2 "c:\\program files (x86)\\cypress\\psoc creator\\4.4\\psoc creator\\import\\gnu\\arm\\5.4.
 214              		.file 3 "c:\\program files (x86)\\cypress\\psoc creator\\4.4\\psoc creator\\import\\gnu\\arm\\5.4.
 215              		.file 4 "Generated_Source\\PSoC5/cytypes.h"
 216              		.file 5 "DMA_Routines.h"
 217              		.file 6 "Generated_Source\\PSoC5/core_cm3.h"
 218              		.file 7 "Generated_Source\\PSoC5/DMA_dma.h"
 219              		.file 8 "Generated_Source\\PSoC5/CYDMAC.H"
 220              		.file 9 "Generated_Source\\PSoC5/DMA_FM_dma.h"
 221              		.file 10 "Generated_Source\\PSoC5/DMA_MF_dma.h"