ARM GAS  C:\Users\cante\AppData\Local\Temp\cc3M7mk1.s 			page 1


   1              		.syntax unified
   2              		.cpu cortex-m3
   3              		.fpu softvfp
   4              		.eabi_attribute 20, 1
   5              		.eabi_attribute 21, 1
   6              		.eabi_attribute 23, 3
   7              		.eabi_attribute 24, 1
   8              		.eabi_attribute 25, 1
   9              		.eabi_attribute 26, 1
  10              		.eabi_attribute 30, 1
  11              		.eabi_attribute 34, 1
  12              		.eabi_attribute 18, 4
  13              		.thumb
  14              		.syntax unified
  15              		.file	"DMA_Routines.c"
  16              		.text
  17              	.Ltext0:
  18              		.cfi_sections	.debug_frame
  19              		.section	.text.DMA_ADC_2_MEM_Config,"ax",%progbits
  20              		.align	2
  21              		.global	DMA_ADC_2_MEM_Config
  22              		.thumb
  23              		.thumb_func
  24              		.type	DMA_ADC_2_MEM_Config, %function
  25              	DMA_ADC_2_MEM_Config:
  26              	.LFB64:
  27              		.file 1 "DMA_Routines.c"
   1:DMA_Routines.c **** /* ========================================
   2:DMA_Routines.c ****  *
   3:DMA_Routines.c ****  * Copyright YOUR COMPANY, THE YEAR
   4:DMA_Routines.c ****  * All Rights Reserved
   5:DMA_Routines.c ****  * UNPUBLISHED, LICENSED SOFTWARE.
   6:DMA_Routines.c ****  *
   7:DMA_Routines.c ****  * CONFIDENTIAL AND PROPRIETARY INFORMATION
   8:DMA_Routines.c ****  * WHICH IS THE PROPERTY OF your company.
   9:DMA_Routines.c ****  *
  10:DMA_Routines.c ****  * ========================================
  11:DMA_Routines.c **** */
  12:DMA_Routines.c **** 
  13:DMA_Routines.c **** #include "DMA_Routines.h"
  14:DMA_Routines.c **** #include "project.h"
  15:DMA_Routines.c **** 
  16:DMA_Routines.c **** void DMA_ADC_2_MEM_Config(void) {
  28              		.loc 1 16 0
  29              		.cfi_startproc
  30              		@ args = 0, pretend = 0, frame = 0
  31              		@ frame_needed = 0, uses_anonymous_args = 0
  32 0000 38B5     		push	{r3, r4, r5, lr}
  33              		.cfi_def_cfa_offset 16
  34              		.cfi_offset 3, -16
  35              		.cfi_offset 4, -12
  36              		.cfi_offset 5, -8
  37              		.cfi_offset 14, -4
  17:DMA_Routines.c ****     
  18:DMA_Routines.c **** 
  19:DMA_Routines.c ****     /* Variable declarations for DMA */
  20:DMA_Routines.c ****     /* Move these variable declarations to the top of the function */
ARM GAS  C:\Users\cante\AppData\Local\Temp\cc3M7mk1.s 			page 2


  21:DMA_Routines.c ****     
  22:DMA_Routines.c ****     //handle the dma channel
  23:DMA_Routines.c ****     uint8 DMA_Chan;
  24:DMA_Routines.c ****     
  25:DMA_Routines.c ****     //handle to the dma to transaction descriptor
  26:DMA_Routines.c ****     uint8 DMA_TD[1];
  27:DMA_Routines.c **** 
  28:DMA_Routines.c ****     /* DMA Configuration for DMA */
  29:DMA_Routines.c ****     
  30:DMA_Routines.c ****     //initialize the dma channel
  31:DMA_Routines.c ****     DMA_Chan = DMA_DmaInitialize(DMA_BYTES_PER_BURST, DMA_REQUEST_PER_BURST, 
  38              		.loc 1 31 0
  39 0002 41F6FF73 		movw	r3, #8191
  40 0006 4FF48042 		mov	r2, #16384
  41 000a 0121     		movs	r1, #1
  42 000c 0220     		movs	r0, #2
  43 000e FFF7FEFF 		bl	DMA_DmaInitialize
  44              	.LVL0:
  45 0012 0546     		mov	r5, r0
  46              	.LVL1:
  32:DMA_Routines.c ****         HI16(DMA_SRC_BASE), HI16(DMA_DST_BASE));
  33:DMA_Routines.c ****     
  34:DMA_Routines.c ****     //allocation of TD
  35:DMA_Routines.c ****     DMA_TD[0] = CyDmaTdAllocate();
  47              		.loc 1 35 0
  48 0014 FFF7FEFF 		bl	CyDmaTdAllocate
  49              	.LVL2:
  50 0018 0446     		mov	r4, r0
  36:DMA_Routines.c ****     
  37:DMA_Routines.c ****     //Configuration of transaction descriptor (TD)
  38:DMA_Routines.c ****     CyDmaTdSetConfiguration(DMA_TD[0], 2, DMA_TD[0], CY_DMA_TD_INC_DST_ADR);
  51              		.loc 1 38 0
  52 001a 0223     		movs	r3, #2
  53 001c 0246     		mov	r2, r0
  54 001e 1946     		mov	r1, r3
  55 0020 FFF7FEFF 		bl	CyDmaTdSetConfiguration
  56              	.LVL3:
  39:DMA_Routines.c ****     
  40:DMA_Routines.c ****     //specify the address (lower part)
  41:DMA_Routines.c ****     CyDmaTdSetAddress(DMA_TD[0], LO16((uint32)ADC_DelSig_DEC_SAMP_PTR), LO16((uint32)AdcBuffer));
  57              		.loc 1 41 0
  58 0024 074A     		ldr	r2, .L3
  59 0026 92B2     		uxth	r2, r2
  60 0028 44F61061 		movw	r1, #19984
  61 002c 2046     		mov	r0, r4
  62 002e FFF7FEFF 		bl	CyDmaTdSetAddress
  63              	.LVL4:
  42:DMA_Routines.c ****     
  43:DMA_Routines.c ****     //association between dma channel with TD
  44:DMA_Routines.c ****     CyDmaChSetInitialTd(DMA_Chan, DMA_TD[0]);
  64              		.loc 1 44 0
  65 0032 2146     		mov	r1, r4
  66 0034 2846     		mov	r0, r5
  67 0036 FFF7FEFF 		bl	CyDmaChSetInitialTd
  68              	.LVL5:
  45:DMA_Routines.c ****     
  46:DMA_Routines.c ****     // start of dma
ARM GAS  C:\Users\cante\AppData\Local\Temp\cc3M7mk1.s 			page 3


  47:DMA_Routines.c ****     CyDmaChEnable(DMA_Chan, 1);
  69              		.loc 1 47 0
  70 003a 0121     		movs	r1, #1
  71 003c 2846     		mov	r0, r5
  72 003e FFF7FEFF 		bl	CyDmaChEnable
  73              	.LVL6:
  74 0042 38BD     		pop	{r3, r4, r5, pc}
  75              	.LVL7:
  76              	.L4:
  77              		.align	2
  78              	.L3:
  79 0044 00000000 		.word	AdcBuffer
  80              		.cfi_endproc
  81              	.LFE64:
  82              		.size	DMA_ADC_2_MEM_Config, .-DMA_ADC_2_MEM_Config
  83              		.comm	AdcBuffer,2,4
  84              		.text
  85              	.Letext0:
  86              		.file 2 "c:\\program files (x86)\\cypress\\psoc creator\\4.4\\psoc creator\\import\\gnu\\arm\\5.4.
  87              		.file 3 "c:\\program files (x86)\\cypress\\psoc creator\\4.4\\psoc creator\\import\\gnu\\arm\\5.4.
  88              		.file 4 "Generated_Source\\PSoC5/cytypes.h"
  89              		.file 5 "DMA_Routines.h"
  90              		.file 6 "Generated_Source\\PSoC5/core_cm3.h"
  91              		.file 7 "Generated_Source\\PSoC5/DMA_dma.h"
  92              		.file 8 "Generated_Source\\PSoC5/CYDMAC.H"