ARM GAS  C:\Users\cante\AppData\Local\Temp\ccyIg4Rl.s 			page 1


   1              		.syntax unified
   2              		.cpu cortex-m3
   3              		.fpu softvfp
   4              		.eabi_attribute 20, 1
   5              		.eabi_attribute 21, 1
   6              		.eabi_attribute 23, 3
   7              		.eabi_attribute 24, 1
   8              		.eabi_attribute 25, 1
   9              		.eabi_attribute 26, 1
  10              		.eabi_attribute 30, 1
  11              		.eabi_attribute 34, 1
  12              		.eabi_attribute 18, 4
  13              		.thumb
  14              		.syntax unified
  15              		.file	"InterruptRoutines.c"
  16              		.text
  17              	.Ltext0:
  18              		.cfi_sections	.debug_frame
  19              		.section	.text.Custom_UART_RX_ISR,"ax",%progbits
  20              		.align	2
  21              		.global	Custom_UART_RX_ISR
  22              		.thumb
  23              		.thumb_func
  24              		.type	Custom_UART_RX_ISR, %function
  25              	Custom_UART_RX_ISR:
  26              	.LFB64:
  27              		.file 1 "InterruptRoutines.c"
   1:InterruptRoutines.c **** /* ========================================
   2:InterruptRoutines.c ****  *
   3:InterruptRoutines.c ****  * Copyright YOUR COMPANY, THE YEAR
   4:InterruptRoutines.c ****  * All Rights Reserved
   5:InterruptRoutines.c ****  * UNPUBLISHED, LICENSED SOFTWARE.
   6:InterruptRoutines.c ****  *
   7:InterruptRoutines.c ****  * CONFIDENTIAL AND PROPRIETARY INFORMATION
   8:InterruptRoutines.c ****  * WHICH IS THE PROPERTY OF your company.
   9:InterruptRoutines.c ****  *
  10:InterruptRoutines.c ****  * ========================================
  11:InterruptRoutines.c **** */
  12:InterruptRoutines.c **** 
  13:InterruptRoutines.c **** #include "InterruptRoutines.h"
  14:InterruptRoutines.c **** #include "stdio.h"
  15:InterruptRoutines.c **** 
  16:InterruptRoutines.c **** static char message [20] = {'\0'}; //inizializzo la stringa a valore nullo
  17:InterruptRoutines.c **** 
  18:InterruptRoutines.c **** 
  19:InterruptRoutines.c **** CY_ISR(Custom_UART_RX_ISR)
  20:InterruptRoutines.c **** {
  28              		.loc 1 20 0
  29              		.cfi_startproc
  30              		@ args = 0, pretend = 0, frame = 0
  31              		@ frame_needed = 0, uses_anonymous_args = 0
  32 0000 38B5     		push	{r3, r4, r5, lr}
  33              		.cfi_def_cfa_offset 16
  34              		.cfi_offset 3, -16
  35              		.cfi_offset 4, -12
  36              		.cfi_offset 5, -8
  37              		.cfi_offset 14, -4
ARM GAS  C:\Users\cante\AppData\Local\Temp\ccyIg4Rl.s 			page 2


  21:InterruptRoutines.c ****   //we read the received data and echo it back
  22:InterruptRoutines.c ****     //there are two ways: one we do everything in the interrupt, in the other
  23:InterruptRoutines.c ****     // we use a flag in a source file
  24:InterruptRoutines.c ****     if (UART_ReadRxStatus() == UART_RX_STS_FIFO_NOTEMPTY)
  38              		.loc 1 24 0
  39 0002 FFF7FEFF 		bl	UART_ReadRxStatus
  40              	.LVL0:
  41 0006 2028     		cmp	r0, #32
  42 0008 16D1     		bne	.L1
  43              	.LBB2:
  25:InterruptRoutines.c ****     // WE HAVE some fata in the receiving buffer that need to be read 
  26:InterruptRoutines.c ****     {
  27:InterruptRoutines.c ****         uint8_t received= UART_ReadRxData(); // leggiamo rx data
  44              		.loc 1 27 0
  45 000a FFF7FEFF 		bl	UART_ReadRxData
  46              	.LVL1:
  47 000e 0446     		mov	r4, r0
  48              	.LVL2:
  28:InterruptRoutines.c ****         //if we have some data in the FIFO
  29:InterruptRoutines.c ****         sprintf(message, "Received: %c\r\n", received); // formattiamo quello che abbiamo letto
  49              		.loc 1 29 0
  50 0010 0A4D     		ldr	r5, .L5
  51 0012 0246     		mov	r2, r0
  52 0014 0A49     		ldr	r1, .L5+4
  53 0016 2846     		mov	r0, r5
  54              	.LVL3:
  55 0018 FFF7FEFF 		bl	sprintf
  56              	.LVL4:
  30:InterruptRoutines.c ****             //la prima è la stringa che volgiamo scrivere su questo messaggio
  31:InterruptRoutines.c ****         
  32:InterruptRoutines.c ****         UART_PutString(message); // lo mandiamo 
  57              		.loc 1 32 0
  58 001c 2846     		mov	r0, r5
  59 001e FFF7FEFF 		bl	UART_PutString
  60              	.LVL5:
  33:InterruptRoutines.c ****         
  34:InterruptRoutines.c ****         if (received == 'b'){
  61              		.loc 1 34 0
  62 0022 622C     		cmp	r4, #98
  63 0024 03D1     		bne	.L3
  35:InterruptRoutines.c ****             
  36:InterruptRoutines.c ****             Pin_uart_Write(1);
  64              		.loc 1 36 0
  65 0026 0120     		movs	r0, #1
  66 0028 FFF7FEFF 		bl	Pin_uart_Write
  67              	.LVL6:
  68 002c 38BD     		pop	{r3, r4, r5, pc}
  69              	.L3:
  37:InterruptRoutines.c ****         }
  38:InterruptRoutines.c ****         
  39:InterruptRoutines.c ****         else if (received == 's'){
  70              		.loc 1 39 0
  71 002e 732C     		cmp	r4, #115
  72 0030 02D1     		bne	.L1
  40:InterruptRoutines.c ****             Pin_uart_Write(0);
  73              		.loc 1 40 0
  74 0032 0020     		movs	r0, #0
ARM GAS  C:\Users\cante\AppData\Local\Temp\ccyIg4Rl.s 			page 3


  75 0034 FFF7FEFF 		bl	Pin_uart_Write
  76              	.LVL7:
  77              	.L1:
  78 0038 38BD     		pop	{r3, r4, r5, pc}
  79              	.L6:
  80 003a 00BF     		.align	2
  81              	.L5:
  82 003c 00000000 		.word	.LANCHOR0
  83 0040 00000000 		.word	.LC0
  84              	.LBE2:
  85              		.cfi_endproc
  86              	.LFE64:
  87              		.size	Custom_UART_RX_ISR, .-Custom_UART_RX_ISR
  88              		.section	.rodata.str1.4,"aMS",%progbits,1
  89              		.align	2
  90              	.LC0:
  91 0000 52656365 		.ascii	"Received: %c\015\012\000"
  91      69766564 
  91      3A202563 
  91      0D0A00
  92              		.bss
  93              		.align	2
  94              		.set	.LANCHOR0,. + 0
  95              		.type	message, %object
  96              		.size	message, 20
  97              	message:
  98 0000 00000000 		.space	20
  98      00000000 
  98      00000000 
  98      00000000 
  98      00000000 
  99              		.text
 100              	.Letext0:
 101              		.file 2 "c:\\program files (x86)\\cypress\\psoc creator\\4.4\\psoc creator\\import\\gnu\\arm\\5.4.
 102              		.file 3 "c:\\program files (x86)\\cypress\\psoc creator\\4.4\\psoc creator\\import\\gnu\\arm\\5.4.
 103              		.file 4 "Generated_Source\\PSoC5/cytypes.h"
 104              		.file 5 "Generated_Source\\PSoC5/UART.h"
 105              		.file 6 "c:\\program files (x86)\\cypress\\psoc creator\\4.4\\psoc creator\\import\\gnu\\arm\\5.4.
 106              		.file 7 "Generated_Source\\PSoC5/Pin_uart.h"
 107              		.file 8 "Generated_Source\\PSoC5/core_cm3.h"