ARM GAS  C:\Users\cante\AppData\Local\Temp\cc9Zh2c5.s 			page 1


   1              		.syntax unified
   2              		.cpu cortex-m3
   3              		.fpu softvfp
   4              		.eabi_attribute 20, 1
   5              		.eabi_attribute 21, 1
   6              		.eabi_attribute 23, 3
   7              		.eabi_attribute 24, 1
   8              		.eabi_attribute 25, 1
   9              		.eabi_attribute 26, 1
  10              		.eabi_attribute 30, 1
  11              		.eabi_attribute 34, 1
  12              		.eabi_attribute 18, 4
  13              		.thumb
  14              		.syntax unified
  15              		.file	"main.c"
  16              		.text
  17              	.Ltext0:
  18              		.cfi_sections	.debug_frame
  19              		.section	.text.main,"ax",%progbits
  20              		.align	2
  21              		.global	main
  22              		.thumb
  23              		.thumb_func
  24              		.type	main, %function
  25              	main:
  26              	.LFB63:
  27              		.file 1 "main.c"
   1:main.c        **** /* ========================================
   2:main.c        ****  *
   3:main.c        ****  * Copyright YOUR COMPANY, THE YEAR
   4:main.c        ****  * All Rights Reserved
   5:main.c        ****  * UNPUBLISHED, LICENSED SOFTWARE.
   6:main.c        ****  *
   7:main.c        ****  * CONFIDENTIAL AND PROPRIETARY INFORMATION
   8:main.c        ****  * WHICH IS THE PROPERTY OF your company.
   9:main.c        ****  *
  10:main.c        ****  * ========================================
  11:main.c        **** */
  12:main.c        **** 
  13:main.c        **** 
  14:main.c        **** /*
  15:main.c        **** when the button is pressed, the LED is on
  16:main.c        **** */ 
  17:main.c        **** 
  18:main.c        **** 
  19:main.c        **** 
  20:main.c        **** #include "project.h"
  21:main.c        **** 
  22:main.c        **** #define LED_ON  1   // High digital state
  23:main.c        **** #define LED_OFF 0   // Low digital state
  24:main.c        **** 
  25:main.c        **** #define PUSHBUTTON_PRESSED 0    // Pushbutton is pressed -> resistive pull - up -> 0
  26:main.c        **** #define DEBOUNCE_DELAY 100000
  27:main.c        **** 
  28:main.c        **** int main(void)
  29:main.c        **** {
  28              		.loc 1 29 0
ARM GAS  C:\Users\cante\AppData\Local\Temp\cc9Zh2c5.s 			page 2


  29              		.cfi_startproc
  30              		@ args = 0, pretend = 0, frame = 0
  31              		@ frame_needed = 0, uses_anonymous_args = 0
  32 0000 70B5     		push	{r4, r5, r6, lr}
  33              		.cfi_def_cfa_offset 16
  34              		.cfi_offset 4, -16
  35              		.cfi_offset 5, -12
  36              		.cfi_offset 6, -8
  37              		.cfi_offset 14, -4
  30:main.c        ****     CyGlobalIntEnable; /* Enable global interrupts. */
  38              		.loc 1 30 0
  39              		.syntax unified
  40              	@ 30 "main.c" 1
  41 0002 62B6     		CPSIE   i
  42              	@ 0 "" 2
  43              	.LVL0:
  31:main.c        **** 
  32:main.c        ****     // Last reading of push button
  33:main.c        ****     uint8_t pushButtonLastState = !PUSHBUTTON_PRESSED;  
  34:main.c        ****     // Current reading of push button
  35:main.c        ****     uint8_t pushButtonReading = !PUSHBUTTON_PRESSED;
  36:main.c        ****     // Counter to count time
  37:main.c        ****     long int pushButtonCounter = 0;
  44              		.loc 1 37 0
  45              		.thumb
  46              		.syntax unified
  47 0004 0024     		movs	r4, #0
  35:main.c        ****     // Counter to count time
  48              		.loc 1 35 0
  49 0006 0126     		movs	r6, #1
  50 0008 00E0     		b	.L2
  51              	.LVL1:
  52              	.L4:
  53 000a 2E46     		mov	r6, r5
  54              	.LVL2:
  55              	.L2:
  38:main.c        ****     
  39:main.c        ****     for(;;)
  40:main.c        ****     {
  41:main.c        ****         // Update state and reading
  42:main.c        ****         pushButtonLastState = pushButtonReading;
  43:main.c        ****         pushButtonReading = PushButton_Read();
  56              		.loc 1 43 0
  57 000c FFF7FEFF 		bl	PushButton_Read
  58              	.LVL3:
  59 0010 0546     		mov	r5, r0
  60              	.LVL4:
  44:main.c        ****         // Increment counter
  45:main.c        ****         pushButtonCounter ++;
  61              		.loc 1 45 0
  62 0012 0134     		adds	r4, r4, #1
  63              	.LVL5:
  46:main.c        ****         if (pushButtonReading != pushButtonLastState)
  64              		.loc 1 46 0
  65 0014 8642     		cmp	r6, r0
  66 0016 00D0     		beq	.L3
  47:main.c        ****         {
ARM GAS  C:\Users\cante\AppData\Local\Temp\cc9Zh2c5.s 			page 3


  48:main.c        ****             // Reset counter if something changed
  49:main.c        ****             pushButtonCounter = 0;
  67              		.loc 1 49 0
  68 0018 0024     		movs	r4, #0
  69              	.LVL6:
  70              	.L3:
  50:main.c        ****         }
  51:main.c        ****         
  52:main.c        ****         // If we've waited enough time
  53:main.c        ****         if (pushButtonCounter == DEBOUNCE_DELAY)
  71              		.loc 1 53 0
  72 001a 064B     		ldr	r3, .L7
  73 001c 9C42     		cmp	r4, r3
  74 001e F4D1     		bne	.L4
  54:main.c        ****         {
  55:main.c        ****             // If push button was pressed
  56:main.c        ****             if (pushButtonReading == PUSHBUTTON_PRESSED)
  75              		.loc 1 56 0
  76 0020 002D     		cmp	r5, #0
  77 0022 F2D1     		bne	.L4
  57:main.c        ****             {
  58:main.c        ****                 // Toggle LED
  59:main.c        ****                 Pin_LED_Write(!Pin_LED_Read());
  78              		.loc 1 59 0
  79 0024 FFF7FEFF 		bl	Pin_LED_Read
  80              	.LVL7:
  81 0028 B0FA80F0 		clz	r0, r0
  82 002c 4009     		lsrs	r0, r0, #5
  83 002e FFF7FEFF 		bl	Pin_LED_Write
  84              	.LVL8:
  85 0032 EAE7     		b	.L4
  86              	.L8:
  87              		.align	2
  88              	.L7:
  89 0034 A0860100 		.word	100000
  90              		.cfi_endproc
  91              	.LFE63:
  92              		.size	main, .-main
  93              		.text
  94              	.Letext0:
  95              		.file 2 "c:\\program files (x86)\\cypress\\psoc creator\\4.4\\psoc creator\\import\\gnu\\arm\\5.4.
  96              		.file 3 "c:\\program files (x86)\\cypress\\psoc creator\\4.4\\psoc creator\\import\\gnu\\arm\\5.4.
  97              		.file 4 "Generated_Source\\PSoC5/PushButton.h"
  98              		.file 5 "Generated_Source\\PSoC5/Pin_LED.h"
  99              		.file 6 "Generated_Source\\PSoC5/core_cm3.h"