ARM GAS  C:\Users\cante\AppData\Local\Temp\ccKBtDak.s 			page 1


   1              		.syntax unified
   2              		.cpu cortex-m3
   3              		.fpu softvfp
   4              		.eabi_attribute 20, 1
   5              		.eabi_attribute 21, 1
   6              		.eabi_attribute 23, 3
   7              		.eabi_attribute 24, 1
   8              		.eabi_attribute 25, 1
   9              		.eabi_attribute 26, 1
  10              		.eabi_attribute 30, 1
  11              		.eabi_attribute 34, 1
  12              		.eabi_attribute 18, 4
  13              		.thumb
  14              		.syntax unified
  15              		.file	"InterruptRoutines.c"
  16              		.text
  17              	.Ltext0:
  18              		.cfi_sections	.debug_frame
  19              		.section	.text.Custom_ISR_ADC,"ax",%progbits
  20              		.align	2
  21              		.global	Custom_ISR_ADC
  22              		.thumb
  23              		.thumb_func
  24              		.type	Custom_ISR_ADC, %function
  25              	Custom_ISR_ADC:
  26              	.LFB64:
  27              		.file 1 "InterruptRoutines.c"
   1:InterruptRoutines.c **** /* ========================================
   2:InterruptRoutines.c ****  *
   3:InterruptRoutines.c ****  * Copyright YOUR COMPANY, THE YEAR
   4:InterruptRoutines.c ****  * All Rights Reserved
   5:InterruptRoutines.c ****  * UNPUBLISHED, LICENSED SOFTWARE.
   6:InterruptRoutines.c ****  *
   7:InterruptRoutines.c ****  * CONFIDENTIAL AND PROPRIETARY INFORMATION
   8:InterruptRoutines.c ****  * WHICH IS THE PROPERTY OF your company.
   9:InterruptRoutines.c ****  *
  10:InterruptRoutines.c ****  * ========================================
  11:InterruptRoutines.c **** */
  12:InterruptRoutines.c **** 
  13:InterruptRoutines.c **** #include "InterruptRoutines.h"
  14:InterruptRoutines.c **** #include "project.h"
  15:InterruptRoutines.c **** 
  16:InterruptRoutines.c **** int32 value_digit;
  17:InterruptRoutines.c **** // se uso il valore in mv sull'asse x poi vedrò i valori in mv
  18:InterruptRoutines.c **** 
  19:InterruptRoutines.c **** extern volatile uint8 PacketReadyFlag;
  20:InterruptRoutines.c **** extern volatile uint8 SendBytesFlag;
  21:InterruptRoutines.c **** uint8 ch_received;
  22:InterruptRoutines.c **** 
  23:InterruptRoutines.c **** 
  24:InterruptRoutines.c **** CY_ISR(Custom_ISR_ADC)
  25:InterruptRoutines.c **** {
  28              		.loc 1 25 0
  29              		.cfi_startproc
  30              		@ args = 0, pretend = 0, frame = 0
  31              		@ frame_needed = 0, uses_anonymous_args = 0
  32 0000 08B5     		push	{r3, lr}
ARM GAS  C:\Users\cante\AppData\Local\Temp\ccKBtDak.s 			page 2


  33              		.cfi_def_cfa_offset 8
  34              		.cfi_offset 3, -8
  35              		.cfi_offset 14, -4
  26:InterruptRoutines.c ****     Timer_ReadStatusRegister(); //se non la metto il codice esegue una sola interrupt e si ferma  
  36              		.loc 1 26 0
  37 0002 FFF7FEFF 		bl	Timer_ReadStatusRegister
  38              	.LVL0:
  27:InterruptRoutines.c ****     if (SendBytesFlag == 1) {
  39              		.loc 1 27 0
  40 0006 104B     		ldr	r3, .L6
  41 0008 1B78     		ldrb	r3, [r3]	@ zero_extendqisi2
  42 000a DBB2     		uxtb	r3, r3
  43 000c 012B     		cmp	r3, #1
  44 000e 19D1     		bne	.L1
  28:InterruptRoutines.c ****         value_digit= ADC_DelSig_Read32(); //perchè usiamo qui 32 se abbiamo settato l'adc a 16 bit
  45              		.loc 1 28 0
  46 0010 FFF7FEFF 		bl	ADC_DelSig_Read32
  47              	.LVL1:
  48 0014 0D4B     		ldr	r3, .L6+4
  49 0016 1860     		str	r0, [r3]
  29:InterruptRoutines.c ****         
  30:InterruptRoutines.c ****         if (value_digit < 0)     value_digit = 0;
  50              		.loc 1 30 0
  51 0018 0028     		cmp	r0, #0
  52 001a 01DA     		bge	.L3
  53              		.loc 1 30 0 is_stmt 0 discriminator 1
  54 001c 0022     		movs	r2, #0
  55 001e 1A60     		str	r2, [r3]
  56              	.L3:
  31:InterruptRoutines.c ****         if (value_digit > 65535) value_digit = 65535; //setto valori minimo e massimo che noi leggi
  57              		.loc 1 31 0 is_stmt 1
  58 0020 0A4B     		ldr	r3, .L6+4
  59 0022 1B68     		ldr	r3, [r3]
  60 0024 B3F5803F 		cmp	r3, #65536
  61 0028 03DB     		blt	.L4
  62              		.loc 1 31 0 is_stmt 0 discriminator 1
  63 002a 4FF6FF72 		movw	r2, #65535
  64 002e 074B     		ldr	r3, .L6+4
  65 0030 1A60     		str	r2, [r3]
  66              	.L4:
  32:InterruptRoutines.c ****         
  33:InterruptRoutines.c ****         //databuffer ha 4 byte (2 sono del dato e 1 start e 1 stop)
  34:InterruptRoutines.c ****         // i byte di start e stop rimangono costanti e vado a cambiare i byte del dato 
  35:InterruptRoutines.c ****         DataBuffer[1] = value_digit >> 8; // per mettere il bit più significativo alla posizione 1
  67              		.loc 1 35 0 is_stmt 1
  68 0032 064B     		ldr	r3, .L6+4
  69 0034 1A68     		ldr	r2, [r3]
  70 0036 1112     		asrs	r1, r2, #8
  71 0038 054B     		ldr	r3, .L6+8
  72 003a 5970     		strb	r1, [r3, #1]
  36:InterruptRoutines.c ****         DataBuffer[2] = value_digit & 0xFF; //per mettere il meno significativo alla posizione 2
  73              		.loc 1 36 0
  74 003c 9A70     		strb	r2, [r3, #2]
  37:InterruptRoutines.c ****         //sprintf(DataBuffer, "Sample: %ld mV\r\n", value_mv); 
  38:InterruptRoutines.c ****         
  39:InterruptRoutines.c ****         PacketReadyFlag = 1;
  75              		.loc 1 39 0
ARM GAS  C:\Users\cante\AppData\Local\Temp\ccKBtDak.s 			page 3


  76 003e 0122     		movs	r2, #1
  77 0040 044B     		ldr	r3, .L6+12
  78 0042 1A70     		strb	r2, [r3]
  79              	.L1:
  80 0044 08BD     		pop	{r3, pc}
  81              	.L7:
  82 0046 00BF     		.align	2
  83              	.L6:
  84 0048 00000000 		.word	SendBytesFlag
  85 004c 00000000 		.word	value_digit
  86 0050 00000000 		.word	DataBuffer
  87 0054 00000000 		.word	PacketReadyFlag
  88              		.cfi_endproc
  89              	.LFE64:
  90              		.size	Custom_ISR_ADC, .-Custom_ISR_ADC
  91              		.section	.text.Custom_ISR_RX,"ax",%progbits
  92              		.align	2
  93              		.global	Custom_ISR_RX
  94              		.thumb
  95              		.thumb_func
  96              		.type	Custom_ISR_RX, %function
  97              	Custom_ISR_RX:
  98              	.LFB65:
  40:InterruptRoutines.c ****     }
  41:InterruptRoutines.c **** 
  42:InterruptRoutines.c **** 
  43:InterruptRoutines.c **** }
  44:InterruptRoutines.c **** 
  45:InterruptRoutines.c **** CY_ISR(Custom_ISR_RX)
  46:InterruptRoutines.c **** {
  99              		.loc 1 46 0
 100              		.cfi_startproc
 101              		@ args = 0, pretend = 0, frame = 0
 102              		@ frame_needed = 0, uses_anonymous_args = 0
 103 0000 08B5     		push	{r3, lr}
 104              		.cfi_def_cfa_offset 8
 105              		.cfi_offset 3, -8
 106              		.cfi_offset 14, -4
  47:InterruptRoutines.c ****     ch_received = UART_GetChar();
 107              		.loc 1 47 0
 108 0002 FFF7FEFF 		bl	UART_GetChar
 109              	.LVL2:
 110 0006 144B     		ldr	r3, .L14
 111 0008 1870     		strb	r0, [r3]
  48:InterruptRoutines.c ****     
  49:InterruptRoutines.c ****     switch(ch_received)
 112              		.loc 1 49 0
 113 000a 4138     		subs	r0, r0, #65
 114 000c 2128     		cmp	r0, #33
 115 000e 21D8     		bhi	.L8
 116 0010 DFE800F0 		tbb	[pc, r0]
 117              	.L11:
 118 0014 11       		.byte	(.L10-.L11)/2
 119 0015 19       		.byte	(.L12-.L11)/2
 120 0016 20       		.byte	(.L8-.L11)/2
 121 0017 20       		.byte	(.L8-.L11)/2
 122 0018 20       		.byte	(.L8-.L11)/2
ARM GAS  C:\Users\cante\AppData\Local\Temp\ccKBtDak.s 			page 4


 123 0019 20       		.byte	(.L8-.L11)/2
 124 001a 20       		.byte	(.L8-.L11)/2
 125 001b 20       		.byte	(.L8-.L11)/2
 126 001c 20       		.byte	(.L8-.L11)/2
 127 001d 20       		.byte	(.L8-.L11)/2
 128 001e 20       		.byte	(.L8-.L11)/2
 129 001f 20       		.byte	(.L8-.L11)/2
 130 0020 20       		.byte	(.L8-.L11)/2
 131 0021 20       		.byte	(.L8-.L11)/2
 132 0022 20       		.byte	(.L8-.L11)/2
 133 0023 20       		.byte	(.L8-.L11)/2
 134 0024 20       		.byte	(.L8-.L11)/2
 135 0025 20       		.byte	(.L8-.L11)/2
 136 0026 20       		.byte	(.L8-.L11)/2
 137 0027 20       		.byte	(.L8-.L11)/2
 138 0028 20       		.byte	(.L8-.L11)/2
 139 0029 20       		.byte	(.L8-.L11)/2
 140 002a 20       		.byte	(.L8-.L11)/2
 141 002b 20       		.byte	(.L8-.L11)/2
 142 002c 20       		.byte	(.L8-.L11)/2
 143 002d 20       		.byte	(.L8-.L11)/2
 144 002e 20       		.byte	(.L8-.L11)/2
 145 002f 20       		.byte	(.L8-.L11)/2
 146 0030 20       		.byte	(.L8-.L11)/2
 147 0031 20       		.byte	(.L8-.L11)/2
 148 0032 20       		.byte	(.L8-.L11)/2
 149 0033 20       		.byte	(.L8-.L11)/2
 150 0034 11       		.byte	(.L10-.L11)/2
 151 0035 19       		.byte	(.L12-.L11)/2
 152              		.p2align 1
 153              	.L10:
  50:InterruptRoutines.c ****     {
  51:InterruptRoutines.c ****         case 'A':
  52:InterruptRoutines.c ****         case 'a':
  53:InterruptRoutines.c ****             SendBytesFlag = 1;
 154              		.loc 1 53 0
 155 0036 0120     		movs	r0, #1
 156 0038 084B     		ldr	r3, .L14+4
 157 003a 1870     		strb	r0, [r3]
  54:InterruptRoutines.c ****             Pin_LED_Write(1);
 158              		.loc 1 54 0
 159 003c FFF7FEFF 		bl	Pin_LED_Write
 160              	.LVL3:
  55:InterruptRoutines.c ****             Timer_Start();
 161              		.loc 1 55 0
 162 0040 FFF7FEFF 		bl	Timer_Start
 163              	.LVL4:
  56:InterruptRoutines.c ****             break;
 164              		.loc 1 56 0
 165 0044 08BD     		pop	{r3, pc}
 166              	.L12:
  57:InterruptRoutines.c ****         
  58:InterruptRoutines.c ****         case 'B':
  59:InterruptRoutines.c ****         case 'b':
  60:InterruptRoutines.c ****             SendBytesFlag = 0;
 167              		.loc 1 60 0
 168 0046 0020     		movs	r0, #0
ARM GAS  C:\Users\cante\AppData\Local\Temp\ccKBtDak.s 			page 5


 169 0048 044B     		ldr	r3, .L14+4
 170 004a 1870     		strb	r0, [r3]
  61:InterruptRoutines.c ****             Pin_LED_Write(0);
 171              		.loc 1 61 0
 172 004c FFF7FEFF 		bl	Pin_LED_Write
 173              	.LVL5:
  62:InterruptRoutines.c ****             Timer_Stop();
 174              		.loc 1 62 0
 175 0050 FFF7FEFF 		bl	Timer_Stop
 176              	.LVL6:
 177              	.L8:
 178 0054 08BD     		pop	{r3, pc}
 179              	.L15:
 180 0056 00BF     		.align	2
 181              	.L14:
 182 0058 00000000 		.word	ch_received
 183 005c 00000000 		.word	SendBytesFlag
 184              		.cfi_endproc
 185              	.LFE65:
 186              		.size	Custom_ISR_RX, .-Custom_ISR_RX
 187              		.comm	ch_received,1,1
 188              		.comm	value_digit,4,4
 189              		.comm	DataBuffer,4,4
 190              		.text
 191              	.Letext0:
 192              		.file 2 "c:\\program files (x86)\\cypress\\psoc creator\\4.4\\psoc creator\\import\\gnu\\arm\\5.4.
 193              		.file 3 "c:\\program files (x86)\\cypress\\psoc creator\\4.4\\psoc creator\\import\\gnu\\arm\\5.4.
 194              		.file 4 "Generated_Source\\PSoC5/cytypes.h"
 195              		.file 5 "InterruptRoutines.h"
 196              		.file 6 "Generated_Source\\PSoC5/core_cm3.h"
 197              		.file 7 "Generated_Source\\PSoC5/Timer.h"
 198              		.file 8 "Generated_Source\\PSoC5/ADC_DelSig.h"
 199              		.file 9 "Generated_Source\\PSoC5/UART.h"
 200              		.file 10 "Generated_Source\\PSoC5/Pin_LED.h"